target datalayout = "e-m:e-p270:32:32-p271:32:32-p272:64:64-i64:64-i128:128-f80:128-n8:16:32:64-S128"
target triple = "x86_64-pc-linux-gnu"

%struct.hwloc_binding_hooks = type { ptr, ptr, ptr, ptr, ptr, ptr, ptr, ptr, ptr, ptr, ptr, ptr, ptr, ptr, ptr, ptr, ptr, ptr, ptr, ptr, ptr, ptr, ptr, ptr }
%struct.hwloc_topology_support = type { ptr, ptr, ptr, ptr }
%struct.hwloc_topology_membind_support = type { i8, i8, i8, i8, i8, i8, i8, i8, i8, i8, i8, i8, i8, i8, i8, i8 }

@.str.2 = private unnamed_addr constant [45 x i8] c"/sys/kernel/mm/mempolicy/weighted_interleave\00", align 1

; Function Attrs: nounwind uwtable
define hidden void @hwloc_set_linuxfs_hooks(ptr noundef %0, ptr noundef %1) #0 {
  %3 = alloca ptr, align 8
  %4 = alloca ptr, align 8
  store ptr %0, ptr %3, align 8, !tbaa !55
  store ptr %1, ptr %4, align 8, !tbaa !57
  %5 = load ptr, ptr %3, align 8, !tbaa !55
  %6 = getelementptr inbounds nuw %struct.hwloc_binding_hooks, ptr %5, i32 0, i32 2
  store ptr @hwloc_linux_set_thisthread_cpubind, ptr %6, align 8, !tbaa !59
  %7 = load ptr, ptr %3, align 8, !tbaa !55
  %8 = getelementptr inbounds nuw %struct.hwloc_binding_hooks, ptr %7, i32 0, i32 3
  store ptr @hwloc_linux_get_thisthread_cpubind, ptr %8, align 8, !tbaa !60
  %9 = load ptr, ptr %3, align 8, !tbaa !55
  %10 = getelementptr inbounds nuw %struct.hwloc_binding_hooks, ptr %9, i32 0, i32 0
  store ptr @hwloc_linux_set_thisproc_cpubind, ptr %10, align 8, !tbaa !61
  %11 = load ptr, ptr %3, align 8, !tbaa !55
  %12 = getelementptr inbounds nuw %struct.hwloc_binding_hooks, ptr %11, i32 0, i32 1
  store ptr @hwloc_linux_get_thisproc_cpubind, ptr %12, align 8, !tbaa !62
  %13 = load ptr, ptr %3, align 8, !tbaa !55
  %14 = getelementptr inbounds nuw %struct.hwloc_binding_hooks, ptr %13, i32 0, i32 4
  store ptr @hwloc_linux_set_proc_cpubind, ptr %14, align 8, !tbaa !63
  %15 = load ptr, ptr %3, align 8, !tbaa !55
  %16 = getelementptr inbounds nuw %struct.hwloc_binding_hooks, ptr %15, i32 0, i32 5
  store ptr @hwloc_linux_get_proc_cpubind, ptr %16, align 8, !tbaa !64
  %17 = load ptr, ptr %3, align 8, !tbaa !55
  %18 = getelementptr inbounds nuw %struct.hwloc_binding_hooks, ptr %17, i32 0, i32 6
  store ptr @hwloc_linux_set_thread_cpubind, ptr %18, align 8, !tbaa !65
  %19 = load ptr, ptr %3, align 8, !tbaa !55
  %20 = getelementptr inbounds nuw %struct.hwloc_binding_hooks, ptr %19, i32 0, i32 7
  store ptr @hwloc_linux_get_thread_cpubind, ptr %20, align 8, !tbaa !66
  %21 = load ptr, ptr %3, align 8, !tbaa !55
  %22 = getelementptr inbounds nuw %struct.hwloc_binding_hooks, ptr %21, i32 0, i32 9
  store ptr @hwloc_linux_get_thisthread_last_cpu_location, ptr %22, align 8, !tbaa !67
  %23 = load ptr, ptr %3, align 8, !tbaa !55
  %24 = getelementptr inbounds nuw %struct.hwloc_binding_hooks, ptr %23, i32 0, i32 8
  store ptr @hwloc_linux_get_thisproc_last_cpu_location, ptr %24, align 8, !tbaa !68
  %25 = load ptr, ptr %3, align 8, !tbaa !55
  %26 = getelementptr inbounds nuw %struct.hwloc_binding_hooks, ptr %25, i32 0, i32 10
  store ptr @hwloc_linux_get_proc_last_cpu_location, ptr %26, align 8, !tbaa !69
  %27 = load ptr, ptr %3, align 8, !tbaa !55
  %28 = getelementptr inbounds nuw %struct.hwloc_binding_hooks, ptr %27, i32 0, i32 13
  store ptr @hwloc_linux_set_thisthread_membind, ptr %28, align 8, !tbaa !70
  %29 = load ptr, ptr %3, align 8, !tbaa !55
  %30 = getelementptr inbounds nuw %struct.hwloc_binding_hooks, ptr %29, i32 0, i32 14
  store ptr @hwloc_linux_get_thisthread_membind, ptr %30, align 8, !tbaa !71
  %31 = load ptr, ptr %3, align 8, !tbaa !55
  %32 = getelementptr inbounds nuw %struct.hwloc_binding_hooks, ptr %31, i32 0, i32 18
  store ptr @hwloc_linux_get_area_membind, ptr %32, align 8, !tbaa !72
  %33 = load ptr, ptr %3, align 8, !tbaa !55
  %34 = getelementptr inbounds nuw %struct.hwloc_binding_hooks, ptr %33, i32 0, i32 17
  store ptr @hwloc_linux_set_area_membind, ptr %34, align 8, !tbaa !73
  %35 = load ptr, ptr %3, align 8, !tbaa !55
  %36 = getelementptr inbounds nuw %struct.hwloc_binding_hooks, ptr %35, i32 0, i32 19
  store ptr @hwloc_linux_get_area_memlocation, ptr %36, align 8, !tbaa !74
  %37 = load ptr, ptr %3, align 8, !tbaa !55
  %38 = getelementptr inbounds nuw %struct.hwloc_binding_hooks, ptr %37, i32 0, i32 21
  store ptr @hwloc_linux_alloc_membind, ptr %38, align 8, !tbaa !75
  %39 = load ptr, ptr %3, align 8, !tbaa !55
  %40 = getelementptr inbounds nuw %struct.hwloc_binding_hooks, ptr %39, i32 0, i32 20
  store ptr @hwloc_alloc_mmap, ptr %40, align 8, !tbaa !76
  %41 = load ptr, ptr %3, align 8, !tbaa !55
  %42 = getelementptr inbounds nuw %struct.hwloc_binding_hooks, ptr %41, i32 0, i32 22
  store ptr @hwloc_free_mmap, ptr %42, align 8, !tbaa !77
  %43 = load ptr, ptr %4, align 8, !tbaa !57
  %44 = getelementptr inbounds nuw %struct.hwloc_topology_support, ptr %43, i32 0, i32 2
  %45 = load ptr, ptr %44, align 8, !tbaa !78
  %46 = getelementptr inbounds nuw %struct.hwloc_topology_membind_support, ptr %45, i32 0, i32 10
  store i8 1, ptr %46, align 1, !tbaa !79
  %47 = load ptr, ptr %4, align 8, !tbaa !57
  %48 = getelementptr inbounds nuw %struct.hwloc_topology_support, ptr %47, i32 0, i32 2
  %49 = load ptr, ptr %48, align 8, !tbaa !78
  %50 = getelementptr inbounds nuw %struct.hwloc_topology_membind_support, ptr %49, i32 0, i32 11
  store i8 1, ptr %50, align 1, !tbaa !81
  %51 = load ptr, ptr %4, align 8, !tbaa !57
  %52 = getelementptr inbounds nuw %struct.hwloc_topology_support, ptr %51, i32 0, i32 2
  %53 = load ptr, ptr %52, align 8, !tbaa !78
  %54 = getelementptr inbounds nuw %struct.hwloc_topology_membind_support, ptr %53, i32 0, i32 12
  store i8 1, ptr %54, align 1, !tbaa !82
  %55 = load ptr, ptr %4, align 8, !tbaa !57
  %56 = getelementptr inbounds nuw %struct.hwloc_topology_support, ptr %55, i32 0, i32 2
  %57 = load ptr, ptr %56, align 8, !tbaa !78
  %58 = getelementptr inbounds nuw %struct.hwloc_topology_membind_support, ptr %57, i32 0, i32 15
  store i8 1, ptr %58, align 1, !tbaa !83
  %59 = call i32 @access(ptr noundef @.str.2, i32 noundef 0) #14
  %60 = icmp eq i32 %59, 0
  br i1 %60, label %61, label %66

61:                                               ; preds = %2
  %62 = load ptr, ptr %4, align 8, !tbaa !57
  %63 = getelementptr inbounds nuw %struct.hwloc_topology_support, ptr %62, i32 0, i32 2
  %64 = load ptr, ptr %63, align 8, !tbaa !78
  %65 = getelementptr inbounds nuw %struct.hwloc_topology_membind_support, ptr %64, i32 0, i32 13
  store i8 1, ptr %65, align 1, !tbaa !84
  br label %66

66:                                               ; preds = %61, %2
  %67 = load ptr, ptr %3, align 8, !tbaa !55
  %68 = getelementptr inbounds nuw %struct.hwloc_binding_hooks, ptr %67, i32 0, i32 23
  store ptr @hwloc_linux_get_allowed_resources_hook, ptr %68, align 8, !tbaa !85
  ret void
}