; Function Attrs: nofree nounwind uwtable
define hidden void @hwloc_set_linuxfs_hooks(ptr noundef writeonly captures(none) initializes((0, 88), (104, 120), (136, 192)) %0, ptr noundef readonly captures(none) %1) local_unnamed_addr #10 {
  %3 = getelementptr inbounds nuw i8, ptr %0, i64 16
  store ptr @hwloc_linux_set_thisthread_cpubind, ptr %3, align 8, !tbaa !50
  %4 = getelementptr inbounds nuw i8, ptr %0, i64 24
  store ptr @hwloc_linux_get_thisthread_cpubind, ptr %4, align 8, !tbaa !51
  store ptr @hwloc_linux_set_thisproc_cpubind, ptr %0, align 8, !tbaa !52
  %5 = getelementptr inbounds nuw i8, ptr %0, i64 8
  store ptr @hwloc_linux_get_thisproc_cpubind, ptr %5, align 8, !tbaa !53
  %6 = getelementptr inbounds nuw i8, ptr %0, i64 32
  store ptr @hwloc_linux_set_proc_cpubind, ptr %6, align 8, !tbaa !54
  %7 = getelementptr inbounds nuw i8, ptr %0, i64 40
  store ptr @hwloc_linux_get_proc_cpubind, ptr %7, align 8, !tbaa !55
  %8 = getelementptr inbounds nuw i8, ptr %0, i64 48
  store ptr @hwloc_linux_set_thread_cpubind, ptr %8, align 8, !tbaa !56
  %9 = getelementptr inbounds nuw i8, ptr %0, i64 56
  store ptr @hwloc_linux_get_thread_cpubind, ptr %9, align 8, !tbaa !57
  %10 = getelementptr inbounds nuw i8, ptr %0, i64 72
  store ptr @hwloc_linux_get_thisthread_last_cpu_location, ptr %10, align 8, !tbaa !58
  %11 = getelementptr inbounds nuw i8, ptr %0, i64 64
  store ptr @hwloc_linux_get_thisproc_last_cpu_location, ptr %11, align 8, !tbaa !59
  %12 = getelementptr inbounds nuw i8, ptr %0, i64 80
  store ptr @hwloc_linux_get_proc_last_cpu_location, ptr %12, align 8, !tbaa !60
  %13 = getelementptr inbounds nuw i8, ptr %0, i64 104
  store ptr @hwloc_linux_set_thisthread_membind, ptr %13, align 8, !tbaa !61
  %14 = getelementptr inbounds nuw i8, ptr %0, i64 112
  store ptr @hwloc_linux_get_thisthread_membind, ptr %14, align 8, !tbaa !62
  %15 = getelementptr inbounds nuw i8, ptr %0, i64 144
  store ptr @hwloc_linux_get_area_membind, ptr %15, align 8, !tbaa !63
  %16 = getelementptr inbounds nuw i8, ptr %0, i64 136
  store ptr @hwloc_linux_set_area_membind, ptr %16, align 8, !tbaa !64
  %17 = getelementptr inbounds nuw i8, ptr %0, i64 152
  store ptr @hwloc_linux_get_area_memlocation, ptr %17, align 8, !tbaa !65
  %18 = getelementptr inbounds nuw i8, ptr %0, i64 168
  store ptr @hwloc_linux_alloc_membind, ptr %18, align 8, !tbaa !66
  %19 = getelementptr inbounds nuw i8, ptr %0, i64 160
  store ptr @hwloc_alloc_mmap, ptr %19, align 8, !tbaa !67
  %20 = getelementptr inbounds nuw i8, ptr %0, i64 176
  store ptr @hwloc_free_mmap, ptr %20, align 8, !tbaa !68
  %21 = getelementptr inbounds nuw i8, ptr %1, i64 16
  %22 = load ptr, ptr %21, align 8, !tbaa !69
  %23 = getelementptr inbounds nuw i8, ptr %22, i64 10
  store i8 1, ptr %23, align 1, !tbaa !70
  %24 = getelementptr inbounds nuw i8, ptr %22, i64 11
  store i8 1, ptr %24, align 1, !tbaa !72
  %25 = getelementptr inbounds nuw i8, ptr %22, i64 12
  store i8 1, ptr %25, align 1, !tbaa !73
  %26 = getelementptr inbounds nuw i8, ptr %22, i64 15
  store i8 1, ptr %26, align 1, !tbaa !74
  %27 = tail call i32 @access(ptr noundef nonnull @.str.2, i32 noundef 0) #27
  %28 = icmp eq i32 %27, 0
  br i1 %28, label %29, label %32

29:                                               ; preds = %2
  %30 = load ptr, ptr %21, align 8, !tbaa !69
  %31 = getelementptr inbounds nuw i8, ptr %30, i64 13
  store i8 1, ptr %31, align 1, !tbaa !75
  br label %32

32:                                               ; preds = %29, %2
  %33 = getelementptr inbounds nuw i8, ptr %0, i64 184
  store ptr @hwloc_linux_get_allowed_resources_hook, ptr %33, align 8, !tbaa !76
  ret void
}